target datalayout = "e-m:e-p270:32:32-p271:32:32-p272:64:64-i64:64-i128:128-f80:128-n8:16:32:64-S128"
target triple = "x86_64-unknown-linux-gnu"

%"class.QuantLib::StrippedCappedFlooredCouponLeg" = type { %"class.std::vector.53" }
%"class.std::vector.53" = type { %"struct.std::_Vector_base.54" }
%"struct.std::_Vector_base.54" = type { %"struct.std::_Vector_base<boost::shared_ptr<QuantLib::CashFlow>, std::allocator<boost::shared_ptr<QuantLib::CashFlow>>>::_Vector_impl" }
%"struct.std::_Vector_base<boost::shared_ptr<QuantLib::CashFlow>, std::allocator<boost::shared_ptr<QuantLib::CashFlow>>>::_Vector_impl" = type { %"struct.std::_Vector_base<boost::shared_ptr<QuantLib::CashFlow>, std::allocator<boost::shared_ptr<QuantLib::CashFlow>>>::_Vector_impl_data" }
%"struct.std::_Vector_base<boost::shared_ptr<QuantLib::CashFlow>, std::allocator<boost::shared_ptr<QuantLib::CashFlow>>>::_Vector_impl_data" = type { ptr, ptr, ptr }

; Function Attrs: mustprogress nounwind uwtable
define linkonce_odr void @_ZNSt15__new_allocatorIN5boost10shared_ptrIN8QuantLib8CashFlowEEEEC2ERKS5_(ptr noundef nonnull align 1 dereferenceable(1) %this, ptr noundef nonnull align 1 dereferenceable(1) %0) unnamed_addr #1 comdat align 2 {
entry:
  %this.addr = alloca ptr, align 8
  %.addr = alloca ptr, align 8
  store ptr %this, ptr %this.addr, align 8, !tbaa !3
  store ptr %0, ptr %.addr, align 8, !tbaa !3
  ret void
}

; Function Attrs: mustprogress nounwind uwtable
define linkonce_odr void @_ZNSt12_Vector_baseIN5boost10shared_ptrIN8QuantLib8CashFlowEEESaIS4_EE17_Vector_impl_dataC2EOS7_(ptr noundef nonnull align 8 dereferenceable(24) %this, ptr noundef nonnull align 8 dereferenceable(24) %__x) unnamed_addr #1 comdat align 2 {
entry:
  %this.addr = alloca ptr, align 8
  %__x.addr = alloca ptr, align 8
  store ptr %this, ptr %this.addr, align 8, !tbaa !3
  store ptr %__x, ptr %__x.addr, align 8, !tbaa !3
  %this1 = load ptr, ptr %this.addr, align 8
  %_M_start = getelementptr inbounds nuw %"struct.std::_Vector_base<boost::shared_ptr<QuantLib::CashFlow>, std::allocator<boost::shared_ptr<QuantLib::CashFlow>>>::_Vector_impl_data", ptr %this1, i32 0, i32 0
  %0 = load ptr, ptr %__x.addr, align 8, !tbaa !3
  %_M_start2 = getelementptr inbounds nuw %"struct.std::_Vector_base<boost::shared_ptr<QuantLib::CashFlow>, std::allocator<boost::shared_ptr<QuantLib::CashFlow>>>::_Vector_impl_data", ptr %0, i32 0, i32 0
  %1 = load ptr, ptr %_M_start2, align 8, !tbaa !55
  store ptr %1, ptr %_M_start, align 8, !tbaa !55
  %_M_finish = getelementptr inbounds nuw %"struct.std::_Vector_base<boost::shared_ptr<QuantLib::CashFlow>, std::allocator<boost::shared_ptr<QuantLib::CashFlow>>>::_Vector_impl_data", ptr %this1, i32 0, i32 1
  %2 = load ptr, ptr %__x.addr, align 8, !tbaa !3
  %_M_finish3 = getelementptr inbounds nuw %"struct.std::_Vector_base<boost::shared_ptr<QuantLib::CashFlow>, std::allocator<boost::shared_ptr<QuantLib::CashFlow>>>::_Vector_impl_data", ptr %2, i32 0, i32 1
  %3 = load ptr, ptr %_M_finish3, align 8, !tbaa !57
  store ptr %3, ptr %_M_finish, align 8, !tbaa !57
  %_M_end_of_storage = getelementptr inbounds nuw %"struct.std::_Vector_base<boost::shared_ptr<QuantLib::CashFlow>, std::allocator<boost::shared_ptr<QuantLib::CashFlow>>>::_Vector_impl_data", ptr %this1, i32 0, i32 2
  %4 = load ptr, ptr %__x.addr, align 8, !tbaa !3
  %_M_end_of_storage4 = getelementptr inbounds nuw %"struct.std::_Vector_base<boost::shared_ptr<QuantLib::CashFlow>, std::allocator<boost::shared_ptr<QuantLib::CashFlow>>>::_Vector_impl_data", ptr %4, i32 0, i32 2
  %5 = load ptr, ptr %_M_end_of_storage4, align 8, !tbaa !58
  store ptr %5, ptr %_M_end_of_storage, align 8, !tbaa !58
  %6 = load ptr, ptr %__x.addr, align 8, !tbaa !3
  %_M_end_of_storage5 = getelementptr inbounds nuw %"struct.std::_Vector_base<boost::shared_ptr<QuantLib::CashFlow>, std::allocator<boost::shared_ptr<QuantLib::CashFlow>>>::_Vector_impl_data", ptr %6, i32 0, i32 2
  store ptr null, ptr %_M_end_of_storage5, align 8, !tbaa !58
  %7 = load ptr, ptr %__x.addr, align 8, !tbaa !3
  %_M_finish6 = getelementptr inbounds nuw %"struct.std::_Vector_base<boost::shared_ptr<QuantLib::CashFlow>, std::allocator<boost::shared_ptr<QuantLib::CashFlow>>>::_Vector_impl_data", ptr %7, i32 0, i32 1
  store ptr null, ptr %_M_finish6, align 8, !tbaa !57
  %8 = load ptr, ptr %__x.addr, align 8, !tbaa !3
  %_M_start7 = getelementptr inbounds nuw %"struct.std::_Vector_base<boost::shared_ptr<QuantLib::CashFlow>, std::allocator<boost::shared_ptr<QuantLib::CashFlow>>>::_Vector_impl_data", ptr %8, i32 0, i32 0
  store ptr null, ptr %_M_start7, align 8, !tbaa !55
  ret void
}

; Function Attrs: mustprogress nounwind uwtable
define linkonce_odr void @_ZNSaIN5boost10shared_ptrIN8QuantLib8CashFlowEEEEC2ERKS4_(ptr noundef nonnull align 1 dereferenceable(1) %this, ptr noundef nonnull align 1 dereferenceable(1) %__a) unnamed_addr #1 comdat align 2 {
entry:
  %this.addr = alloca ptr, align 8
  %__a.addr = alloca ptr, align 8
  store ptr %this, ptr %this.addr, align 8, !tbaa !3
  store ptr %__a, ptr %__a.addr, align 8, !tbaa !3
  %this1 = load ptr, ptr %this.addr, align 8
  %0 = load ptr, ptr %__a.addr, align 8, !tbaa !3
  call void @_ZNSt15__new_allocatorIN5boost10shared_ptrIN8QuantLib8CashFlowEEEEC2ERKS5_(ptr noundef nonnull align 1 dereferenceable(1) %this1, ptr noundef nonnull align 1 dereferenceable(1) %0) #13
  ret void
}

; Function Attrs: mustprogress nounwind uwtable
define linkonce_odr void @_ZNSt12_Vector_baseIN5boost10shared_ptrIN8QuantLib8CashFlowEEESaIS4_EE12_Vector_implC2EOS7_(ptr noundef nonnull align 8 dereferenceable(24) %this, ptr noundef nonnull align 8 dereferenceable(24) %__x) unnamed_addr #1 comdat align 2 {
entry:
  %this.addr = alloca ptr, align 8
  %__x.addr = alloca ptr, align 8
  store ptr %this, ptr %this.addr, align 8, !tbaa !3
  store ptr %__x, ptr %__x.addr, align 8, !tbaa !3
  %this1 = load ptr, ptr %this.addr, align 8
  %0 = load ptr, ptr %__x.addr, align 8, !tbaa !3
  call void @_ZNSaIN5boost10shared_ptrIN8QuantLib8CashFlowEEEEC2ERKS4_(ptr noundef nonnull align 1 dereferenceable(1) %this1, ptr noundef nonnull align 1 dereferenceable(1) %0) #13
  %1 = load ptr, ptr %__x.addr, align 8, !tbaa !3
  call void @_ZNSt12_Vector_baseIN5boost10shared_ptrIN8QuantLib8CashFlowEEESaIS4_EE17_Vector_impl_dataC2EOS7_(ptr noundef nonnull align 8 dereferenceable(24) %this1, ptr noundef nonnull align 8 dereferenceable(24) %1) #13
  ret void
}

; Function Attrs: mustprogress nounwind uwtable
define linkonce_odr void @_ZNSt12_Vector_baseIN5boost10shared_ptrIN8QuantLib8CashFlowEEESaIS4_EEC2EOS6_(ptr noundef nonnull align 8 dereferenceable(24) %this, ptr noundef nonnull align 8 dereferenceable(24) %0) unnamed_addr #1 comdat align 2 {
entry:
  %this.addr = alloca ptr, align 8
  %.addr = alloca ptr, align 8
  store ptr %this, ptr %this.addr, align 8, !tbaa !3
  store ptr %0, ptr %.addr, align 8, !tbaa !3
  %this1 = load ptr, ptr %this.addr, align 8
  %_M_impl = getelementptr inbounds nuw %"struct.std::_Vector_base.54", ptr %this1, i32 0, i32 0
  %1 = load ptr, ptr %.addr, align 8, !tbaa !3
  %_M_impl2 = getelementptr inbounds nuw %"struct.std::_Vector_base.54", ptr %1, i32 0, i32 0
  call void @_ZNSt12_Vector_baseIN5boost10shared_ptrIN8QuantLib8CashFlowEEESaIS4_EE12_Vector_implC2EOS7_(ptr noundef nonnull align 8 dereferenceable(24) %_M_impl, ptr noundef nonnull align 8 dereferenceable(24) %_M_impl2) #13
  ret void
}

; Function Attrs: mustprogress nounwind uwtable
define linkonce_odr void @_ZNSt6vectorIN5boost10shared_ptrIN8QuantLib8CashFlowEEESaIS4_EEC2EOS6_(ptr noundef nonnull align 8 dereferenceable(24) %this, ptr noundef nonnull align 8 dereferenceable(24) %0) unnamed_addr #1 comdat align 2 {
entry:
  %this.addr = alloca ptr, align 8
  %.addr = alloca ptr, align 8
  store ptr %this, ptr %this.addr, align 8, !tbaa !3
  store ptr %0, ptr %.addr, align 8, !tbaa !3
  %this1 = load ptr, ptr %this.addr, align 8
  %1 = load ptr, ptr %.addr, align 8, !tbaa !3
  call void @_ZNSt12_Vector_baseIN5boost10shared_ptrIN8QuantLib8CashFlowEEESaIS4_EEC2EOS6_(ptr noundef nonnull align 8 dereferenceable(24) %this1, ptr noundef nonnull align 8 dereferenceable(24) %1) #13
  ret void
}

; Function Attrs: mustprogress nounwind uwtable
define void @_ZN8QuantLib30StrippedCappedFlooredCouponLegC2ESt6vectorIN5boost10shared_ptrINS_8CashFlowEEESaIS5_EE(ptr noundef nonnull align 8 dereferenceable(24) %this, ptr noundef %underlyingLeg) unnamed_addr #1 align 2 {
entry:
  %this.addr = alloca ptr, align 8
  %underlyingLeg.indirect_addr = alloca ptr, align 8
  store ptr %this, ptr %this.addr, align 8, !tbaa !3
  store ptr %underlyingLeg, ptr %underlyingLeg.indirect_addr, align 8, !tbaa !3
  %this1 = load ptr, ptr %this.addr, align 8
  %underlyingLeg_ = getelementptr inbounds nuw %"class.QuantLib::StrippedCappedFlooredCouponLeg", ptr %this1, i32 0, i32 0
  call void @_ZNSt6vectorIN5boost10shared_ptrIN8QuantLib8CashFlowEEESaIS4_EEC2EOS6_(ptr noundef nonnull align 8 dereferenceable(24) %underlyingLeg_, ptr noundef nonnull align 8 dereferenceable(24) %underlyingLeg) #13
  ret void
}