; Function Attrs: mustprogress nofree norecurse nosync nounwind willreturn memory(argmem: readwrite) uwtable
define void @_ZN8QuantLib30StrippedCappedFlooredCouponLegC2ESt6vectorIN5boost10shared_ptrINS_8CashFlowEEESaIS5_EE(ptr nocapture noundef nonnull writeonly align 8 dereferenceable(24) %this, ptr nocapture noundef %underlyingLeg) unnamed_addr #13 align 2 {
entry:
  %0 = load ptr, ptr %underlyingLeg, align 8, !tbaa !104
  store ptr %0, ptr %this, align 8, !tbaa !104
  %_M_finish.i.i.i.i = getelementptr inbounds nuw i8, ptr %this, i64 8
  %_M_finish3.i.i.i.i = getelementptr inbounds nuw i8, ptr %underlyingLeg, i64 8
  %1 = load ptr, ptr %_M_finish3.i.i.i.i, align 8, !tbaa !106
  store ptr %1, ptr %_M_finish.i.i.i.i, align 8, !tbaa !106
  %_M_end_of_storage.i.i.i.i = getelementptr inbounds nuw i8, ptr %this, i64 16
  %_M_end_of_storage4.i.i.i.i = getelementptr inbounds nuw i8, ptr %underlyingLeg, i64 16
  %2 = load ptr, ptr %_M_end_of_storage4.i.i.i.i, align 8, !tbaa !107
  store ptr %2, ptr %_M_end_of_storage.i.i.i.i, align 8, !tbaa !107
  tail call void @llvm.memset.p0.i64(ptr noundef nonnull align 8 dereferenceable(24) %underlyingLeg, i8 0, i64 24, i1 false)
  ret void
}